target datalayout = "e-m:e-p270:32:32-p271:32:32-p272:64:64-i64:64-i128:128-f80:128-n8:16:32:64-S128"
target triple = "x86_64-pc-linux-gnu"

%struct.expert_field = type { i32, i32 }

@ei_bssgp_missing_mandatory_element = internal global %struct.expert_field zeroinitializer, align 4
@.str.6 = private unnamed_addr constant [71 x i8] c"Missing Mandatory element (0x%02x) %s%s, rest of dissection is suspect\00", align 1
@.str.7 = private unnamed_addr constant [1 x i8] zeroinitializer, align 1

; Function Attrs: null_pointer_is_valid sspstrong uwtable
define internal zeroext i16 @de_bssgp_ran_inf_rim_cont(ptr noundef %0, ptr noundef %1, ptr noundef %2, i32 noundef %3, i32 noundef %4, ptr noundef %5, i32 noundef %6) #1 {
  %8 = alloca ptr, align 8
  %9 = alloca ptr, align 8
  %10 = alloca ptr, align 8
  %11 = alloca i32, align 4
  %12 = alloca i32, align 4
  %13 = alloca ptr, align 8
  %14 = alloca i32, align 4
  %15 = alloca i32, align 4
  %16 = alloca i32, align 4
  %17 = alloca i32, align 4
  store ptr %0, ptr %8, align 8
  store ptr %1, ptr %9, align 8
  store ptr %2, ptr %10, align 8
  store i32 %3, ptr %11, align 4
  store i32 %4, ptr %12, align 4
  store ptr %5, ptr %13, align 8
  store i32 %6, ptr %14, align 4
  call void @llvm.lifetime.start.p0(i64 4, ptr %15) #4
  call void @llvm.lifetime.start.p0(i64 4, ptr %16) #4
  call void @llvm.lifetime.start.p0(i64 4, ptr %17) #4
  %18 = load i32, ptr %11, align 4
  store i32 %18, ptr %15, align 4
  %19 = load i32, ptr %12, align 4
  store i32 %19, ptr %17, align 4
  %20 = load ptr, ptr %8, align 8
  %21 = load ptr, ptr %9, align 8
  %22 = load ptr, ptr %10, align 8
  %23 = load i32, ptr %15, align 4
  %24 = load i32, ptr %17, align 4
  %25 = call zeroext i16 @elem_telv(ptr noundef %20, ptr noundef %21, ptr noundef %22, i8 noundef zeroext 75, i32 noundef 13, i32 noundef 49, i32 noundef %23, i32 noundef %24, ptr noundef null)
  %26 = zext i16 %25 to i32
  store i32 %26, ptr %16, align 4
  %27 = icmp ugt i32 %26, 0
  br i1 %27, label %28, label %35

28:                                               ; preds = %7
  %29 = load i32, ptr %16, align 4
  %30 = load i32, ptr %15, align 4
  %31 = add i32 %30, %29
  store i32 %31, ptr %15, align 4
  %32 = load i32, ptr %16, align 4
  %33 = load i32, ptr %17, align 4
  %34 = sub i32 %33, %32
  store i32 %34, ptr %17, align 4
  br label %42

35:                                               ; preds = %7
  %36 = load ptr, ptr %9, align 8
  %37 = load ptr, ptr %10, align 8
  %38 = load ptr, ptr %8, align 8
  %39 = load i32, ptr %15, align 4
  %40 = call ptr @get_gsm_a_msg_string(i32 noundef 13, i32 noundef 49)
  %41 = call ptr (ptr, ptr, ptr, ptr, i32, i32, ptr, ...) @proto_tree_add_expert_format(ptr noundef %36, ptr noundef %37, ptr noundef @ei_bssgp_missing_mandatory_element, ptr noundef %38, i32 noundef %39, i32 noundef 0, ptr noundef @.str.6, i32 noundef 75, ptr noundef %40, ptr noundef @.str.7)
  br label %42

42:                                               ; preds = %35, %28
  %43 = load ptr, ptr %8, align 8
  %44 = load ptr, ptr %9, align 8
  %45 = load ptr, ptr %10, align 8
  %46 = load i32, ptr %15, align 4
  %47 = load i32, ptr %17, align 4
  %48 = call zeroext i16 @elem_telv(ptr noundef %43, ptr noundef %44, ptr noundef %45, i8 noundef zeroext 76, i32 noundef 13, i32 noundef 50, i32 noundef %46, i32 noundef %47, ptr noundef null)
  %49 = zext i16 %48 to i32
  store i32 %49, ptr %16, align 4
  %50 = icmp ugt i32 %49, 0
  br i1 %50, label %51, label %58

51:                                               ; preds = %42
  %52 = load i32, ptr %16, align 4
  %53 = load i32, ptr %15, align 4
  %54 = add i32 %53, %52
  store i32 %54, ptr %15, align 4
  %55 = load i32, ptr %16, align 4
  %56 = load i32, ptr %17, align 4
  %57 = sub i32 %56, %55
  store i32 %57, ptr %17, align 4
  br label %65

58:                                               ; preds = %42
  %59 = load ptr, ptr %9, align 8
  %60 = load ptr, ptr %10, align 8
  %61 = load ptr, ptr %8, align 8
  %62 = load i32, ptr %15, align 4
  %63 = call ptr @get_gsm_a_msg_string(i32 noundef 13, i32 noundef 50)
  %64 = call ptr (ptr, ptr, ptr, ptr, i32, i32, ptr, ...) @proto_tree_add_expert_format(ptr noundef %59, ptr noundef %60, ptr noundef @ei_bssgp_missing_mandatory_element, ptr noundef %61, i32 noundef %62, i32 noundef 0, ptr noundef @.str.6, i32 noundef 76, ptr noundef %63, ptr noundef @.str.7)
  br label %65

65:                                               ; preds = %58, %51
  %66 = load ptr, ptr %8, align 8
  %67 = load ptr, ptr %9, align 8
  %68 = load ptr, ptr %10, align 8
  %69 = load i32, ptr %15, align 4
  %70 = load i32, ptr %17, align 4
  %71 = call zeroext i16 @elem_telv(ptr noundef %66, ptr noundef %67, ptr noundef %68, i8 noundef zeroext 79, i32 noundef 13, i32 noundef 59, i32 noundef %69, i32 noundef %70, ptr noundef null)
  %72 = zext i16 %71 to i32
  store i32 %72, ptr %16, align 4
  %73 = icmp ugt i32 %72, 0
  br i1 %73, label %74, label %81

74:                                               ; preds = %65
  %75 = load i32, ptr %16, align 4
  %76 = load i32, ptr %15, align 4
  %77 = add i32 %76, %75
  store i32 %77, ptr %15, align 4
  %78 = load i32, ptr %16, align 4
  %79 = load i32, ptr %17, align 4
  %80 = sub i32 %79, %78
  store i32 %80, ptr %17, align 4
  br label %88

81:                                               ; preds = %65
  %82 = load ptr, ptr %9, align 8
  %83 = load ptr, ptr %10, align 8
  %84 = load ptr, ptr %8, align 8
  %85 = load i32, ptr %15, align 4
  %86 = call ptr @get_gsm_a_msg_string(i32 noundef 13, i32 noundef 59)
  %87 = call ptr (ptr, ptr, ptr, ptr, i32, i32, ptr, ...) @proto_tree_add_expert_format(ptr noundef %82, ptr noundef %83, ptr noundef @ei_bssgp_missing_mandatory_element, ptr noundef %84, i32 noundef %85, i32 noundef 0, ptr noundef @.str.6, i32 noundef 79, ptr noundef %86, ptr noundef @.str.7)
  br label %88

88:                                               ; preds = %81, %74
  %89 = load i32, ptr %17, align 4
  %90 = icmp ne i32 %89, 0
  br i1 %90, label %91, label %108

91:                                               ; preds = %88
  %92 = load ptr, ptr %8, align 8
  %93 = load ptr, ptr %9, align 8
  %94 = load ptr, ptr %10, align 8
  %95 = load i32, ptr %15, align 4
  %96 = load i32, ptr %17, align 4
  %97 = call zeroext i16 @elem_telv(ptr noundef %92, ptr noundef %93, ptr noundef %94, i8 noundef zeroext 85, i32 noundef 13, i32 noundef 60, i32 noundef %95, i32 noundef %96, ptr noundef null)
  %98 = zext i16 %97 to i32
  store i32 %98, ptr %16, align 4
  %99 = icmp ugt i32 %98, 0
  br i1 %99, label %100, label %107

100:                                              ; preds = %91
  %101 = load i32, ptr %16, align 4
  %102 = load i32, ptr %15, align 4
  %103 = add i32 %102, %101
  store i32 %103, ptr %15, align 4
  %104 = load i32, ptr %16, align 4
  %105 = load i32, ptr %17, align 4
  %106 = sub i32 %105, %104
  store i32 %106, ptr %17, align 4
  br label %107

107:                                              ; preds = %100, %91
  br label %108

108:                                              ; preds = %107, %88
  %109 = load i32, ptr %17, align 4
  %110 = icmp ne i32 %109, 0
  br i1 %110, label %111, label %128

111:                                              ; preds = %108
  %112 = load ptr, ptr %8, align 8
  %113 = load ptr, ptr %9, align 8
  %114 = load ptr, ptr %10, align 8
  %115 = load i32, ptr %15, align 4
  %116 = load i32, ptr %17, align 4
  %117 = call zeroext i16 @elem_telv(ptr noundef %112, ptr noundef %113, ptr noundef %114, i8 noundef zeroext 78, i32 noundef 13, i32 noundef 57, i32 noundef %115, i32 noundef %116, ptr noundef null)
  %118 = zext i16 %117 to i32
  store i32 %118, ptr %16, align 4
  %119 = icmp ugt i32 %118, 0
  br i1 %119, label %120, label %127

120:                                              ; preds = %111
  %121 = load i32, ptr %16, align 4
  %122 = load i32, ptr %15, align 4
  %123 = add i32 %122, %121
  store i32 %123, ptr %15, align 4
  %124 = load i32, ptr %16, align 4
  %125 = load i32, ptr %17, align 4
  %126 = sub i32 %125, %124
  store i32 %126, ptr %17, align 4
  br label %127

127:                                              ; preds = %120, %111
  br label %128

128:                                              ; preds = %127, %108
  %129 = load i32, ptr %17, align 4
  %130 = icmp ne i32 %129, 0
  br i1 %130, label %131, label %148

131:                                              ; preds = %128
  %132 = load ptr, ptr %8, align 8
  %133 = load ptr, ptr %9, align 8
  %134 = load ptr, ptr %10, align 8
  %135 = load i32, ptr %15, align 4
  %136 = load i32, ptr %17, align 4
  %137 = call zeroext i16 @elem_telv(ptr noundef %132, ptr noundef %133, ptr noundef %134, i8 noundef zeroext 86, i32 noundef 13, i32 noundef 58, i32 noundef %135, i32 noundef %136, ptr noundef null)
  %138 = zext i16 %137 to i32
  store i32 %138, ptr %16, align 4
  %139 = icmp ugt i32 %138, 0
  br i1 %139, label %140, label %147

140:                                              ; preds = %131
  %141 = load i32, ptr %16, align 4
  %142 = load i32, ptr %15, align 4
  %143 = add i32 %142, %141
  store i32 %143, ptr %15, align 4
  %144 = load i32, ptr %16, align 4
  %145 = load i32, ptr %17, align 4
  %146 = sub i32 %145, %144
  store i32 %146, ptr %17, align 4
  br label %147

147:                                              ; preds = %140, %131
  br label %148

148:                                              ; preds = %147, %128
  %149 = load i32, ptr %17, align 4
  %150 = icmp ne i32 %149, 0
  br i1 %150, label %151, label %168

151:                                              ; preds = %148
  %152 = load ptr, ptr %8, align 8
  %153 = load ptr, ptr %9, align 8
  %154 = load ptr, ptr %10, align 8
  %155 = load i32, ptr %15, align 4
  %156 = load i32, ptr %17, align 4
  %157 = call zeroext i16 @elem_telv(ptr noundef %152, ptr noundef %153, ptr noundef %154, i8 noundef zeroext -124, i32 noundef 13, i32 noundef 98, i32 noundef %155, i32 noundef %156, ptr noundef null)
  %158 = zext i16 %157 to i32
  store i32 %158, ptr %16, align 4
  %159 = icmp ugt i32 %158, 0
  br i1 %159, label %160, label %167

160:                                              ; preds = %151
  %161 = load i32, ptr %16, align 4
  %162 = load i32, ptr %15, align 4
  %163 = add i32 %162, %161
  store i32 %163, ptr %15, align 4
  %164 = load i32, ptr %16, align 4
  %165 = load i32, ptr %17, align 4
  %166 = sub i32 %165, %164
  store i32 %166, ptr %17, align 4
  br label %167

167:                                              ; preds = %160, %151
  br label %168

168:                                              ; preds = %167, %148
  %169 = load i32, ptr %15, align 4
  %170 = load i32, ptr %11, align 4
  %171 = sub i32 %169, %170
  %172 = trunc i32 %171 to i16
  call void @llvm.lifetime.end.p0(i64 4, ptr %17) #4
  call void @llvm.lifetime.end.p0(i64 4, ptr %16) #4
  call void @llvm.lifetime.end.p0(i64 4, ptr %15) #4
  ret i16 %172
}