; Function Attrs: null_pointer_is_valid sspstrong uwtable
define internal zeroext i16 @de_bssgp_ran_inf_rim_cont(ptr noundef %0, ptr noundef %1, ptr noundef %2, i32 noundef %3, i32 noundef %4, ptr readnone captures(none) %5, i32 %6) #1 {
  %8 = tail call zeroext i16 @elem_telv(ptr noundef %0, ptr noundef %1, ptr noundef %2, i8 noundef zeroext 75, i32 noundef 13, i32 noundef 49, i32 noundef %3, i32 noundef %4, ptr noundef null)
  %.not = icmp eq i16 %8, 0
  br i1 %.not, label %13, label %9

9:                                                ; preds = %7
  %10 = zext i16 %8 to i32
  %11 = add i32 %3, %10
  %12 = sub i32 %4, %10
  br label %16

13:                                               ; preds = %7
  %14 = tail call ptr @get_gsm_a_msg_string(i32 noundef 13, i32 noundef 49)
  %15 = tail call ptr (ptr, ptr, ptr, ptr, i32, i32, ptr, ...) @proto_tree_add_expert_format(ptr noundef %1, ptr noundef %2, ptr noundef nonnull @ei_bssgp_missing_mandatory_element, ptr noundef %0, i32 noundef %3, i32 noundef 0, ptr noundef nonnull @.str.6, i32 noundef 75, ptr noundef %14, ptr noundef nonnull @.str.7)
  br label %16

16:                                               ; preds = %13, %9
  %.082 = phi i32 [ %11, %9 ], [ %3, %13 ]
  %.0 = phi i32 [ %12, %9 ], [ %4, %13 ]
  %17 = tail call zeroext i16 @elem_telv(ptr noundef %0, ptr noundef %1, ptr noundef %2, i8 noundef zeroext 76, i32 noundef 13, i32 noundef 50, i32 noundef %.082, i32 noundef %.0, ptr noundef null)
  %.not95 = icmp eq i16 %17, 0
  br i1 %.not95, label %22, label %18

18:                                               ; preds = %16
  %19 = zext i16 %17 to i32
  %20 = add i32 %.082, %19
  %21 = sub i32 %.0, %19
  br label %25

22:                                               ; preds = %16
  %23 = tail call ptr @get_gsm_a_msg_string(i32 noundef 13, i32 noundef 50)
  %24 = tail call ptr (ptr, ptr, ptr, ptr, i32, i32, ptr, ...) @proto_tree_add_expert_format(ptr noundef %1, ptr noundef %2, ptr noundef nonnull @ei_bssgp_missing_mandatory_element, ptr noundef %0, i32 noundef %.082, i32 noundef 0, ptr noundef nonnull @.str.6, i32 noundef 76, ptr noundef %23, ptr noundef nonnull @.str.7)
  br label %25

25:                                               ; preds = %22, %18
  %.183 = phi i32 [ %20, %18 ], [ %.082, %22 ]
  %.1 = phi i32 [ %21, %18 ], [ %.0, %22 ]
  %26 = tail call zeroext i16 @elem_telv(ptr noundef %0, ptr noundef %1, ptr noundef %2, i8 noundef zeroext 79, i32 noundef 13, i32 noundef 59, i32 noundef %.183, i32 noundef %.1, ptr noundef null)
  %.not96 = icmp eq i16 %26, 0
  br i1 %.not96, label %31, label %27

27:                                               ; preds = %25
  %28 = zext i16 %26 to i32
  %29 = add i32 %.183, %28
  %30 = sub i32 %.1, %28
  br label %34

31:                                               ; preds = %25
  %32 = tail call ptr @get_gsm_a_msg_string(i32 noundef 13, i32 noundef 59)
  %33 = tail call ptr (ptr, ptr, ptr, ptr, i32, i32, ptr, ...) @proto_tree_add_expert_format(ptr noundef %1, ptr noundef %2, ptr noundef nonnull @ei_bssgp_missing_mandatory_element, ptr noundef %0, i32 noundef %.183, i32 noundef 0, ptr noundef nonnull @.str.6, i32 noundef 79, ptr noundef %32, ptr noundef nonnull @.str.7)
  br label %34

34:                                               ; preds = %31, %27
  %.284 = phi i32 [ %29, %27 ], [ %.183, %31 ]
  %.2 = phi i32 [ %30, %27 ], [ %.1, %31 ]
  %.not97 = icmp eq i32 %.2, 0
  br i1 %.not97, label %.thread125, label %35

35:                                               ; preds = %34
  %36 = tail call zeroext i16 @elem_telv(ptr noundef %0, ptr noundef %1, ptr noundef %2, i8 noundef zeroext 85, i32 noundef 13, i32 noundef 60, i32 noundef %.284, i32 noundef %.2, ptr noundef null)
  %.not98 = icmp eq i16 %36, 0
  br i1 %.not98, label %.thread108, label %37

37:                                               ; preds = %35
  %38 = zext i16 %36 to i32
  %39 = add i32 %.284, %38
  %40 = sub i32 %.2, %38
  %.not99 = icmp eq i32 %40, 0
  br i1 %.not99, label %.thread125, label %.thread108

.thread108:                                       ; preds = %35, %37
  %.3113 = phi i32 [ %40, %37 ], [ %.2, %35 ]
  %.385112 = phi i32 [ %39, %37 ], [ %.284, %35 ]
  %41 = tail call zeroext i16 @elem_telv(ptr noundef %0, ptr noundef %1, ptr noundef %2, i8 noundef zeroext 78, i32 noundef 13, i32 noundef 57, i32 noundef %.385112, i32 noundef %.3113, ptr noundef null)
  %.not100 = icmp eq i16 %41, 0
  br i1 %.not100, label %.thread118, label %42

42:                                               ; preds = %.thread108
  %43 = zext i16 %41 to i32
  %44 = add i32 %.385112, %43
  %45 = sub i32 %.3113, %43
  %.not101 = icmp eq i32 %45, 0
  br i1 %.not101, label %.thread125, label %.thread118

.thread118:                                       ; preds = %.thread108, %42
  %.4123 = phi i32 [ %45, %42 ], [ %.3113, %.thread108 ]
  %.486122 = phi i32 [ %44, %42 ], [ %.385112, %.thread108 ]
  %46 = tail call zeroext i16 @elem_telv(ptr noundef %0, ptr noundef %1, ptr noundef %2, i8 noundef zeroext 86, i32 noundef 13, i32 noundef 58, i32 noundef %.486122, i32 noundef %.4123, ptr noundef null)
  %.not102 = icmp eq i16 %46, 0
  br i1 %.not102, label %.thread129, label %47

47:                                               ; preds = %.thread118
  %48 = zext i16 %46 to i32
  %49 = add i32 %.486122, %48
  %50 = sub i32 %.4123, %48
  %.not103 = icmp eq i32 %50, 0
  br i1 %.not103, label %.thread125, label %.thread129

.thread129:                                       ; preds = %.thread118, %47
  %.5134 = phi i32 [ %50, %47 ], [ %.4123, %.thread118 ]
  %.587133 = phi i32 [ %49, %47 ], [ %.486122, %.thread118 ]
  %51 = tail call zeroext i16 @elem_telv(ptr noundef %0, ptr noundef %1, ptr noundef %2, i8 noundef zeroext -124, i32 noundef 13, i32 noundef 98, i32 noundef %.587133, i32 noundef %.5134, ptr noundef null)
  %.not104 = icmp eq i16 %51, 0
  br i1 %.not104, label %.thread125, label %52

52:                                               ; preds = %.thread129
  %53 = zext i16 %51 to i32
  %54 = add i32 %.587133, %53
  br label %.thread125

.thread125:                                       ; preds = %34, %37, %42, %.thread129, %52, %47
  %.6 = phi i32 [ %54, %52 ], [ %.587133, %.thread129 ], [ %49, %47 ], [ %44, %42 ], [ %39, %37 ], [ %.284, %34 ]
  %55 = sub i32 %.6, %3
  %56 = trunc i32 %55 to i16
  ret i16 %56
}